; Function Attrs: null_pointer_is_valid sspstrong uwtable
define internal i32 @dissect_nfs3_read_call(ptr noundef %0, ptr noundef %1, ptr noundef %2, ptr noundef readonly captures(none) %3) #0 {
  %5 = alloca i32, align 4
  call void @llvm.lifetime.start.p0(i64 4, ptr nonnull %5) #22
  store i32 0, ptr %5, align 4
  %6 = call i32 @dissect_nfs3_fh(ptr noundef %0, i32 noundef 0, ptr noundef %1, ptr noundef %2, ptr noundef nonnull @.str.2244, ptr noundef nonnull %5, ptr noundef %3)
  %7 = call i64 @tvb_get_ntoh64(ptr noundef %0, i32 noundef %6)
  %8 = load i32, ptr @hf_nfs3_offset, align 4
  %9 = call i32 @dissect_rpc_uint64(ptr noundef %0, ptr noundef %2, i32 noundef %8, i32 noundef %6)
  %10 = call i32 @tvb_get_ntohl(ptr noundef %0, i32 noundef %9)
  %11 = load i32, ptr @hf_nfs3_count, align 4
  %12 = call i32 @dissect_rpc_uint32(ptr noundef %0, ptr noundef %2, i32 noundef %11, i32 noundef %9)
  %13 = getelementptr inbounds nuw i8, ptr %1, i64 8
  %14 = load ptr, ptr %13, align 8
  %15 = load i32, ptr %5, align 4
  call void (ptr, i32, ptr, ...) @col_append_fstr(ptr noundef %14, i32 noundef 25, ptr noundef nonnull @.str.2313, i32 noundef %15, i64 noundef %7, i32 noundef %10)
  %16 = load i32, ptr %5, align 4
  call void (ptr, ptr, ...) @proto_item_append_text(ptr noundef %2, ptr noundef nonnull @.str.2314, i32 noundef %16, i64 noundef %7, i32 noundef %10)
  call void @llvm.lifetime.end.p0(i64 4, ptr nonnull %5) #22
  ret i32 %12
}